target datalayout = "e-m:e-p270:32:32-p271:32:32-p272:64:64-i64:64-i128:128-f80:128-n8:16:32:64-S128"
target triple = "x86_64-pc-linux-gnu"

%struct.H5VL_connector_prop_t = type { ptr, ptr }
%struct.H5CX_node_t = type { %struct.H5CX_t, ptr }
%struct.H5CX_t = type { i64, ptr, i64, ptr, i64, ptr, i64, ptr, i64, ptr, i64, ptr, i64, i32, i64, i8, ptr, i8, ptr, i8, i32, i8, [3 x double], i8, i64, i8, i32, i8, %struct.H5Z_cb_t, i8, ptr, i8, %struct.H5T_vlen_alloc_info_t, i8, %struct.H5T_conv_cb_t, i8, i32, i8, i8, i8, i32, i8, i8, i32, i8, i8, i32, i8, i32, i8, i64, i8, i8, i8, i8, i8, ptr, i8, ptr, i8, i32, i8, i32, i8, %struct.H5VL_connector_prop_t, i8, ptr, i8 }
%struct.H5Z_cb_t = type { ptr, ptr }
%struct.H5T_vlen_alloc_info_t = type { ptr, ptr, ptr, ptr }
%struct.H5T_conv_cb_t = type { ptr, ptr }

@H5P_CLS_FILE_ACCESS_ID_g = external global i64, align 8
@H5P_init_g = external global i8, align 1
@H5_libterm_g = external global i8, align 1
@.str.2 = private unnamed_addr constant [101 x i8] c"generated/home/dtcxzyw/WorkSpace/Projects/compilers/llvm-opt-benchmark/bench/hdf5/hdf5/src/H5Pfapl.c\00", align 1
@H5E_CANTGET_g = external global i64, align 8
@H5E_BADID_g = external global i64, align 8
@H5E_CANTSET_g = external global i64, align 8
@H5E_PLIST_g = external global i64, align 8
@H5_libinit_g = external global i8, align 1
@H5E_FUNC_g = external global i64, align 8
@H5E_CANTINIT_g = external global i64, align 8
@.str.15 = private unnamed_addr constant [30 x i8] c"library initialization failed\00", align 1
@.str.16 = private unnamed_addr constant [32 x i8] c"interface initialization failed\00", align 1
@.str.17 = private unnamed_addr constant [22 x i8] c"can't set API context\00", align 1
@H5E_ID_g = external global i64, align 8
@.str.19 = private unnamed_addr constant [25 x i8] c"can't find object for ID\00", align 1
@.str.80 = private unnamed_addr constant [17 x i8] c"sdata_block_size\00", align 1
@__func__.H5Pget_small_data_block_size = private unnamed_addr constant [29 x i8] c"H5Pget_small_data_block_size\00", align 1
@.str.82 = private unnamed_addr constant [34 x i8] c"can't get 'small data' block size\00", align 1

; Function Attrs: nounwind uwtable
define i32 @H5Pget_small_data_block_size(i64 noundef %0, ptr noundef %1) #0 {
  %3 = alloca i64, align 8
  %4 = alloca ptr, align 8
  %5 = alloca ptr, align 8
  %6 = alloca i32, align 4
  %7 = alloca %struct.H5CX_node_t, align 8
  %8 = alloca i8, align 1
  %9 = alloca i8, align 1
  store i64 %0, ptr %3, align 8, !tbaa !8
  store ptr %1, ptr %4, align 8, !tbaa !30
  call void @llvm.lifetime.start.p0(i64 8, ptr %5) #10
  call void @llvm.lifetime.start.p0(i64 4, ptr %6) #10
  store i32 0, ptr %6, align 4, !tbaa !20
  call void @llvm.lifetime.start.p0(i64 480, ptr %7) #10
  call void @llvm.memset.p0.i64(ptr align 8 %7, i8 0, i64 480, i1 false)
  call void @llvm.lifetime.start.p0(i64 1, ptr %8) #10
  store i8 0, ptr %8, align 1, !tbaa !22
  call void @llvm.lifetime.start.p0(i64 1, ptr %9) #10
  store i8 0, ptr %9, align 1, !tbaa !22
  br label %10

10:                                               ; preds = %2
  %11 = load i8, ptr @H5_libinit_g, align 1, !tbaa !22, !range !24, !noundef !25
  %12 = trunc i8 %11 to i1
  br i1 %12, label %17, label %13

13:                                               ; preds = %10
  %14 = load i8, ptr @H5_libterm_g, align 1, !tbaa !22, !range !24, !noundef !25
  %15 = trunc i8 %14 to i1
  %16 = xor i1 %15, true
  br label %17

17:                                               ; preds = %13, %10
  %18 = phi i1 [ false, %10 ], [ %16, %13 ]
  %19 = xor i1 %18, true
  %20 = xor i1 %19, true
  %21 = zext i1 %20 to i32
  %22 = sext i32 %21 to i64
  %23 = call i64 @llvm.expect.i64(i64 %22, i64 0)
  %24 = icmp ne i64 %23, 0
  br i1 %24, label %25, label %54

25:                                               ; preds = %17
  %26 = call i32 @H5_init_library()
  %27 = icmp slt i32 %26, 0
  %28 = xor i1 %27, true
  %29 = xor i1 %28, true
  %30 = zext i1 %29 to i32
  %31 = sext i32 %30 to i64
  %32 = call i64 @llvm.expect.i64(i64 %31, i64 0)
  %33 = icmp ne i64 %32, 0
  br i1 %33, label %34, label %53

34:                                               ; preds = %25
  br label %35

35:                                               ; preds = %34
  br label %36

36:                                               ; preds = %35
  br label %37

37:                                               ; preds = %36
  %38 = load i64, ptr @H5E_FUNC_g, align 8, !tbaa !8
  %39 = load i64, ptr @H5E_CANTINIT_g, align 8, !tbaa !8
  %40 = call i32 (ptr, ptr, i32, i64, i64, ptr, ...) @H5E_printf_stack(ptr noundef @.str.2, ptr noundef @__func__.H5Pget_small_data_block_size, i32 noundef 2708, i64 noundef %38, i64 noundef %39, ptr noundef @.str.15)
  br label %41

41:                                               ; preds = %37
  br label %42

42:                                               ; preds = %41
  store i8 1, ptr %9, align 1, !tbaa !22
  %43 = load i8, ptr %9, align 1, !tbaa !22, !range !24, !noundef !25
  %44 = trunc i8 %43 to i1
  %45 = zext i1 %44 to i8
  store i8 %45, ptr %9, align 1, !tbaa !22
  br label %46

46:                                               ; preds = %42
  br label %47

47:                                               ; preds = %46
  br label %48

48:                                               ; preds = %47
  store i32 -1, ptr %6, align 4, !tbaa !20
  br label %180

49:                                               ; No predecessors!
  br label %50

50:                                               ; preds = %49
  br label %51

51:                                               ; preds = %50
  br label %52

52:                                               ; preds = %51
  br label %53

53:                                               ; preds = %52, %25
  br label %54

54:                                               ; preds = %53, %17
  %55 = load i8, ptr @H5P_init_g, align 1, !tbaa !22, !range !24, !noundef !25
  %56 = trunc i8 %55 to i1
  br i1 %56, label %61, label %57

57:                                               ; preds = %54
  %58 = load i8, ptr @H5_libterm_g, align 1, !tbaa !22, !range !24, !noundef !25
  %59 = trunc i8 %58 to i1
  %60 = xor i1 %59, true
  br label %61

61:                                               ; preds = %57, %54
  %62 = phi i1 [ false, %54 ], [ %60, %57 ]
  %63 = xor i1 %62, true
  %64 = xor i1 %63, true
  %65 = zext i1 %64 to i32
  %66 = sext i32 %65 to i64
  %67 = call i64 @llvm.expect.i64(i64 %66, i64 0)
  %68 = icmp ne i64 %67, 0
  br i1 %68, label %69, label %92

69:                                               ; preds = %61
  store i8 1, ptr @H5P_init_g, align 1, !tbaa !22
  %70 = call i32 @H5P__init_package()
  %71 = icmp slt i32 %70, 0
  br i1 %71, label %72, label %91

72:                                               ; preds = %69
  store i8 0, ptr @H5P_init_g, align 1, !tbaa !22
  br label %73

73:                                               ; preds = %72
  br label %74

74:                                               ; preds = %73
  br label %75

75:                                               ; preds = %74
  %76 = load i64, ptr @H5E_FUNC_g, align 8, !tbaa !8
  %77 = load i64, ptr @H5E_CANTINIT_g, align 8, !tbaa !8
  %78 = call i32 (ptr, ptr, i32, i64, i64, ptr, ...) @H5E_printf_stack(ptr noundef @.str.2, ptr noundef @__func__.H5Pget_small_data_block_size, i32 noundef 2708, i64 noundef %76, i64 noundef %77, ptr noundef @.str.16)
  br label %79

79:                                               ; preds = %75
  br label %80

80:                                               ; preds = %79
  store i8 1, ptr %9, align 1, !tbaa !22
  %81 = load i8, ptr %9, align 1, !tbaa !22, !range !24, !noundef !25
  %82 = trunc i8 %81 to i1
  %83 = zext i1 %82 to i8
  store i8 %83, ptr %9, align 1, !tbaa !22
  br label %84

84:                                               ; preds = %80
  br label %85

85:                                               ; preds = %84
  br label %86

86:                                               ; preds = %85
  store i32 -1, ptr %6, align 4, !tbaa !20
  br label %180

87:                                               ; No predecessors!
  br label %88

88:                                               ; preds = %87
  br label %89

89:                                               ; preds = %88
  br label %90

90:                                               ; preds = %89
  br label %91

91:                                               ; preds = %90, %69
  br label %92

92:                                               ; preds = %91, %61
  br label %93

93:                                               ; preds = %92
  br label %94

94:                                               ; preds = %93
  br label %95

95:                                               ; preds = %94
  %96 = call i32 @H5CX_push(ptr noundef %7)
  %97 = icmp slt i32 %96, 0
  %98 = xor i1 %97, true
  %99 = xor i1 %98, true
  %100 = zext i1 %99 to i32
  %101 = sext i32 %100 to i64
  %102 = call i64 @llvm.expect.i64(i64 %101, i64 0)
  %103 = icmp ne i64 %102, 0
  br i1 %103, label %104, label %123

104:                                              ; preds = %95
  br label %105

105:                                              ; preds = %104
  br label %106

106:                                              ; preds = %105
  br label %107

107:                                              ; preds = %106
  %108 = load i64, ptr @H5E_FUNC_g, align 8, !tbaa !8
  %109 = load i64, ptr @H5E_CANTSET_g, align 8, !tbaa !8
  %110 = call i32 (ptr, ptr, i32, i64, i64, ptr, ...) @H5E_printf_stack(ptr noundef @.str.2, ptr noundef @__func__.H5Pget_small_data_block_size, i32 noundef 2708, i64 noundef %108, i64 noundef %109, ptr noundef @.str.17)
  br label %111

111:                                              ; preds = %107
  br label %112

112:                                              ; preds = %111
  store i8 1, ptr %9, align 1, !tbaa !22
  %113 = load i8, ptr %9, align 1, !tbaa !22, !range !24, !noundef !25
  %114 = trunc i8 %113 to i1
  %115 = zext i1 %114 to i8
  store i8 %115, ptr %9, align 1, !tbaa !22
  br label %116

116:                                              ; preds = %112
  br label %117

117:                                              ; preds = %116
  br label %118

118:                                              ; preds = %117
  store i32 -1, ptr %6, align 4, !tbaa !20
  br label %180

119:                                              ; No predecessors!
  br label %120

120:                                              ; preds = %119
  br label %121

121:                                              ; preds = %120
  br label %122

122:                                              ; preds = %121
  br label %124

123:                                              ; preds = %95
  store i8 1, ptr %8, align 1, !tbaa !22
  br label %124

124:                                              ; preds = %123, %122
  br label %125

125:                                              ; preds = %124
  br label %126

126:                                              ; preds = %125
  %127 = call i32 @H5E_clear_stack()
  %128 = load i64, ptr %3, align 8, !tbaa !8
  %129 = load i64, ptr @H5P_CLS_FILE_ACCESS_ID_g, align 8, !tbaa !8
  %130 = call ptr @H5P_object_verify(i64 noundef %128, i64 noundef %129, i1 noundef zeroext true)
  store ptr %130, ptr %5, align 8, !tbaa !28
  %131 = icmp eq ptr null, %130
  br i1 %131, label %132, label %151

132:                                              ; preds = %126
  br label %133

133:                                              ; preds = %132
  br label %134

134:                                              ; preds = %133
  br label %135

135:                                              ; preds = %134
  %136 = load i64, ptr @H5E_ID_g, align 8, !tbaa !8
  %137 = load i64, ptr @H5E_BADID_g, align 8, !tbaa !8
  %138 = call i32 (ptr, ptr, i32, i64, i64, ptr, ...) @H5E_printf_stack(ptr noundef @.str.2, ptr noundef @__func__.H5Pget_small_data_block_size, i32 noundef 2712, i64 noundef %136, i64 noundef %137, ptr noundef @.str.19)
  br label %139

139:                                              ; preds = %135
  br label %140

140:                                              ; preds = %139
  store i8 1, ptr %9, align 1, !tbaa !22
  %141 = load i8, ptr %9, align 1, !tbaa !22, !range !24, !noundef !25
  %142 = trunc i8 %141 to i1
  %143 = zext i1 %142 to i8
  store i8 %143, ptr %9, align 1, !tbaa !22
  br label %144

144:                                              ; preds = %140
  br label %145

145:                                              ; preds = %144
  br label %146

146:                                              ; preds = %145
  store i32 -1, ptr %6, align 4, !tbaa !20
  br label %180

147:                                              ; No predecessors!
  br label %148

148:                                              ; preds = %147
  br label %149

149:                                              ; preds = %148
  br label %150

150:                                              ; preds = %149
  br label %151

151:                                              ; preds = %150, %126
  %152 = load ptr, ptr %4, align 8, !tbaa !30
  %153 = icmp ne ptr %152, null
  br i1 %153, label %154, label %179

154:                                              ; preds = %151
  %155 = load ptr, ptr %5, align 8, !tbaa !28
  %156 = load ptr, ptr %4, align 8, !tbaa !30
  %157 = call i32 @H5P_get(ptr noundef %155, ptr noundef @.str.80, ptr noundef %156)
  %158 = icmp slt i32 %157, 0
  br i1 %158, label %159, label %178

159:                                              ; preds = %154
  br label %160

160:                                              ; preds = %159
  br label %161

161:                                              ; preds = %160
  br label %162

162:                                              ; preds = %161
  %163 = load i64, ptr @H5E_PLIST_g, align 8, !tbaa !8
  %164 = load i64, ptr @H5E_CANTGET_g, align 8, !tbaa !8
  %165 = call i32 (ptr, ptr, i32, i64, i64, ptr, ...) @H5E_printf_stack(ptr noundef @.str.2, ptr noundef @__func__.H5Pget_small_data_block_size, i32 noundef 2717, i64 noundef %163, i64 noundef %164, ptr noundef @.str.82)
  br label %166

166:                                              ; preds = %162
  br label %167

167:                                              ; preds = %166
  store i8 1, ptr %9, align 1, !tbaa !22
  %168 = load i8, ptr %9, align 1, !tbaa !22, !range !24, !noundef !25
  %169 = trunc i8 %168 to i1
  %170 = zext i1 %169 to i8
  store i8 %170, ptr %9, align 1, !tbaa !22
  br label %171

171:                                              ; preds = %167
  br label %172

172:                                              ; preds = %171
  br label %173

173:                                              ; preds = %172
  store i32 -1, ptr %6, align 4, !tbaa !20
  br label %180

174:                                              ; No predecessors!
  br label %175

175:                                              ; preds = %174
  br label %176

176:                                              ; preds = %175
  br label %177

177:                                              ; preds = %176
  br label %178

178:                                              ; preds = %177, %154
  br label %179

179:                                              ; preds = %178, %151
  br label %180

180:                                              ; preds = %179, %173, %146, %118, %86, %48
  %181 = load i8, ptr %8, align 1, !tbaa !22, !range !24, !noundef !25
  %182 = trunc i8 %181 to i1
  %183 = xor i1 %182, true
  %184 = xor i1 %183, true
  %185 = zext i1 %184 to i32
  %186 = sext i32 %185 to i64
  %187 = call i64 @llvm.expect.i64(i64 %186, i64 1)
  %188 = icmp ne i64 %187, 0
  br i1 %188, label %189, label %191

189:                                              ; preds = %180
  %190 = call i32 @H5CX_pop(i1 noundef zeroext true)
  store i8 0, ptr %8, align 1, !tbaa !22
  br label %191

191:                                              ; preds = %189, %180
  %192 = load i8, ptr %9, align 1, !tbaa !22, !range !24, !noundef !25
  %193 = trunc i8 %192 to i1
  %194 = xor i1 %193, true
  %195 = xor i1 %194, true
  %196 = zext i1 %195 to i32
  %197 = sext i32 %196 to i64
  %198 = call i64 @llvm.expect.i64(i64 %197, i64 0)
  %199 = icmp ne i64 %198, 0
  br i1 %199, label %200, label %202

200:                                              ; preds = %191
  %201 = call i32 @H5E_dump_api_stack()
  br label %202

202:                                              ; preds = %200, %191
  %203 = load i32, ptr %6, align 4, !tbaa !20
  call void @llvm.lifetime.end.p0(i64 1, ptr %9) #10
  call void @llvm.lifetime.end.p0(i64 1, ptr %8) #10
  call void @llvm.lifetime.end.p0(i64 480, ptr %7) #10
  call void @llvm.lifetime.end.p0(i64 4, ptr %6) #10
  call void @llvm.lifetime.end.p0(i64 8, ptr %5) #10
  ret i32 %203
}